target datalayout = "e-m:e-p270:32:32-p271:32:32-p272:64:64-i64:64-i128:128-f80:128-n8:16:32:64-S128"
target triple = "x86_64-pc-linux-gnu"

%class.ns16550_t = type { %class.abstract_device_t, ptr, i32, i32, i32, %"class.std::queue", i8, i8, i8, i8, i8, i8, i8, i8, i8, i8, i32 }
%class.abstract_device_t = type { ptr }
%"class.std::queue" = type { %"class.std::deque" }
%"class.std::deque" = type { %"class.std::_Deque_base" }
%"class.std::_Deque_base" = type { %"struct.std::_Deque_base<unsigned char, std::allocator<unsigned char>>::_Deque_impl" }
%"struct.std::_Deque_base<unsigned char, std::allocator<unsigned char>>::_Deque_impl" = type { %"struct.std::_Deque_base<unsigned char, std::allocator<unsigned char>>::_Deque_impl_data" }
%"struct.std::_Deque_base<unsigned char, std::allocator<unsigned char>>::_Deque_impl_data" = type { ptr, i64, %"struct.std::_Deque_iterator", %"struct.std::_Deque_iterator" }
%"struct.std::_Deque_iterator" = type { ptr, ptr, ptr, ptr }

; Function Attrs: mustprogress nounwind uwtable
define linkonce_odr void @_ZNSt15__new_allocatorIhE10deallocateEPhm(ptr noundef nonnull align 1 dereferenceable(1) %0, ptr noundef %1, i64 noundef %2) #5 comdat align 2 {
  %4 = alloca ptr, align 8
  %5 = alloca ptr, align 8
  %6 = alloca i64, align 8
  store ptr %0, ptr %4, align 8
  store ptr %1, ptr %5, align 8
  store i64 %2, ptr %6, align 8
  %7 = load ptr, ptr %5, align 8
  call void @_ZdlPv(ptr noundef %7) #15
  ret void
}

; Function Attrs: mustprogress nounwind uwtable
define linkonce_odr noundef i64 @_ZNSt15_Deque_iteratorIhRhPhE14_S_buffer_sizeEv() #5 comdat align 2 {
  %1 = call noundef i64 @_ZSt16__deque_buf_sizem(i64 noundef 1)
  ret i64 %1
}

; Function Attrs: mustprogress uwtable
define linkonce_odr void @_ZNSt16allocator_traitsISaIhEE10deallocateERS0_Phm(ptr noundef nonnull align 1 dereferenceable(1) %0, ptr noundef %1, i64 noundef %2) #4 comdat align 2 {
  %4 = alloca ptr, align 8
  %5 = alloca ptr, align 8
  %6 = alloca i64, align 8
  %7 = alloca ptr, align 8
  %8 = alloca ptr, align 8
  %9 = alloca i64, align 8
  store ptr %0, ptr %7, align 8
  store ptr %1, ptr %8, align 8
  store i64 %2, ptr %9, align 8
  %10 = load ptr, ptr %7, align 8
  %11 = load ptr, ptr %8, align 8
  %12 = load i64, ptr %9, align 8
  store ptr %10, ptr %4, align 8
  store ptr %11, ptr %5, align 8
  store i64 %12, ptr %6, align 8
  %13 = load ptr, ptr %4, align 8
  %14 = load ptr, ptr %5, align 8
  %15 = load i64, ptr %6, align 8
  call void @_ZNSt15__new_allocatorIhE10deallocateEPhm(ptr noundef nonnull align 1 dereferenceable(1) %13, ptr noundef %14, i64 noundef %15)
  ret void
}

; Function Attrs: mustprogress nounwind uwtable
define linkonce_odr noundef i64 @_ZSt16__deque_buf_sizem(i64 noundef %0) #5 comdat {
  %2 = alloca i64, align 8
  store i64 %0, ptr %2, align 8
  %3 = load i64, ptr %2, align 8
  %4 = icmp ult i64 %3, 512
  br i1 %4, label %5, label %8

5:                                                ; preds = %1
  %6 = load i64, ptr %2, align 8
  %7 = udiv i64 512, %6
  br label %9

8:                                                ; preds = %1
  br label %9

9:                                                ; preds = %8, %5
  %10 = phi i64 [ %7, %5 ], [ 1, %8 ]
  ret i64 %10
}

; Function Attrs: mustprogress nounwind uwtable
define linkonce_odr void @_ZNSt15_Deque_iteratorIhRhPhE11_M_set_nodeEPS1_(ptr noundef nonnull align 8 dereferenceable(32) %0, ptr noundef %1) #5 comdat align 2 {
  %3 = alloca ptr, align 8
  %4 = alloca ptr, align 8
  store ptr %0, ptr %3, align 8
  store ptr %1, ptr %4, align 8
  %5 = load ptr, ptr %3, align 8
  %6 = load ptr, ptr %4, align 8
  %7 = getelementptr inbounds %"struct.std::_Deque_iterator", ptr %5, i32 0, i32 3
  store ptr %6, ptr %7, align 8
  %8 = load ptr, ptr %4, align 8
  %9 = load ptr, ptr %8, align 8
  %10 = getelementptr inbounds %"struct.std::_Deque_iterator", ptr %5, i32 0, i32 1
  store ptr %9, ptr %10, align 8
  %11 = getelementptr inbounds %"struct.std::_Deque_iterator", ptr %5, i32 0, i32 1
  %12 = load ptr, ptr %11, align 8
  %13 = call noundef i64 @_ZNSt15_Deque_iteratorIhRhPhE14_S_buffer_sizeEv() #3
  %14 = getelementptr inbounds i8, ptr %12, i64 %13
  %15 = getelementptr inbounds %"struct.std::_Deque_iterator", ptr %5, i32 0, i32 2
  store ptr %14, ptr %15, align 8
  ret void
}

; Function Attrs: mustprogress nounwind uwtable
define linkonce_odr void @_ZNSt11_Deque_baseIhSaIhEE18_M_deallocate_nodeEPh(ptr noundef nonnull align 8 dereferenceable(80) %0, ptr noundef %1) #5 comdat align 2 personality ptr @__gxx_personality_v0 {
  %3 = alloca ptr, align 8
  %4 = alloca ptr, align 8
  store ptr %0, ptr %3, align 8
  store ptr %1, ptr %4, align 8
  %5 = load ptr, ptr %3, align 8
  %6 = getelementptr inbounds %"class.std::_Deque_base", ptr %5, i32 0, i32 0
  %7 = load ptr, ptr %4, align 8
  %8 = invoke noundef i64 @_ZSt16__deque_buf_sizem(i64 noundef 1)
          to label %9 unwind label %11

9:                                                ; preds = %2
  invoke void @_ZNSt16allocator_traitsISaIhEE10deallocateERS0_Phm(ptr noundef nonnull align 1 dereferenceable(1) %6, ptr noundef %7, i64 noundef %8)
          to label %10 unwind label %11

10:                                               ; preds = %9
  ret void

11:                                               ; preds = %9, %2
  %12 = landingpad { ptr, i32 }
          catch ptr null
  %13 = extractvalue { ptr, i32 } %12, 0
  call void @__clang_call_terminate(ptr %13) #17
  unreachable
}

; Function Attrs: mustprogress nounwind uwtable
define linkonce_odr void @_ZSt10destroy_atIhEvPT_(ptr noundef %0) #5 comdat {
  %2 = alloca ptr, align 8
  store ptr %0, ptr %2, align 8
  ret void
}

; Function Attrs: mustprogress nounwind uwtable
define linkonce_odr void @_ZNSt15_Deque_iteratorIhRhPhEC2ERKS2_(ptr noundef nonnull align 8 dereferenceable(32) %0, ptr noundef nonnull align 8 dereferenceable(32) %1) unnamed_addr #5 comdat align 2 {
  %3 = alloca ptr, align 8
  %4 = alloca ptr, align 8
  store ptr %0, ptr %3, align 8
  store ptr %1, ptr %4, align 8
  %5 = load ptr, ptr %3, align 8
  %6 = getelementptr inbounds %"struct.std::_Deque_iterator", ptr %5, i32 0, i32 0
  %7 = load ptr, ptr %4, align 8
  %8 = getelementptr inbounds %"struct.std::_Deque_iterator", ptr %7, i32 0, i32 0
  %9 = load ptr, ptr %8, align 8
  store ptr %9, ptr %6, align 8
  %10 = getelementptr inbounds %"struct.std::_Deque_iterator", ptr %5, i32 0, i32 1
  %11 = load ptr, ptr %4, align 8
  %12 = getelementptr inbounds %"struct.std::_Deque_iterator", ptr %11, i32 0, i32 1
  %13 = load ptr, ptr %12, align 8
  store ptr %13, ptr %10, align 8
  %14 = getelementptr inbounds %"struct.std::_Deque_iterator", ptr %5, i32 0, i32 2
  %15 = load ptr, ptr %4, align 8
  %16 = getelementptr inbounds %"struct.std::_Deque_iterator", ptr %15, i32 0, i32 2
  %17 = load ptr, ptr %16, align 8
  store ptr %17, ptr %14, align 8
  %18 = getelementptr inbounds %"struct.std::_Deque_iterator", ptr %5, i32 0, i32 3
  %19 = load ptr, ptr %4, align 8
  %20 = getelementptr inbounds %"struct.std::_Deque_iterator", ptr %19, i32 0, i32 3
  %21 = load ptr, ptr %20, align 8
  store ptr %21, ptr %18, align 8
  ret void
}

; Function Attrs: noreturn nounwind uwtable
define linkonce_odr hidden void @__clang_call_terminate(ptr noundef %0) #10 comdat {
  %2 = call ptr @__cxa_begin_catch(ptr %0) #3
  call void @_ZSt9terminatev() #17
  unreachable
}

; Function Attrs: mustprogress nounwind uwtable
define linkonce_odr void @_ZNSt5dequeIhSaIhEE16_M_pop_front_auxEv(ptr noundef nonnull align 8 dereferenceable(80) %0) #5 comdat align 2 {
  %2 = alloca ptr, align 8
  store ptr %0, ptr %2, align 8
  %3 = load ptr, ptr %2, align 8
  %4 = call noundef nonnull align 1 dereferenceable(1) ptr @_ZNSt11_Deque_baseIhSaIhEE19_M_get_Tp_allocatorEv(ptr noundef nonnull align 8 dereferenceable(80) %3) #3
  %5 = getelementptr inbounds %"class.std::_Deque_base", ptr %3, i32 0, i32 0
  %6 = getelementptr inbounds %"struct.std::_Deque_base<unsigned char, std::allocator<unsigned char>>::_Deque_impl_data", ptr %5, i32 0, i32 2
  %7 = getelementptr inbounds %"struct.std::_Deque_iterator", ptr %6, i32 0, i32 0
  %8 = load ptr, ptr %7, align 8
  call void @_ZNSt16allocator_traitsISaIhEE7destroyIhEEvRS0_PT_(ptr noundef nonnull align 1 dereferenceable(1) %4, ptr noundef %8) #3
  %9 = getelementptr inbounds %"class.std::_Deque_base", ptr %3, i32 0, i32 0
  %10 = getelementptr inbounds %"struct.std::_Deque_base<unsigned char, std::allocator<unsigned char>>::_Deque_impl_data", ptr %9, i32 0, i32 2
  %11 = getelementptr inbounds %"struct.std::_Deque_iterator", ptr %10, i32 0, i32 1
  %12 = load ptr, ptr %11, align 8
  call void @_ZNSt11_Deque_baseIhSaIhEE18_M_deallocate_nodeEPh(ptr noundef nonnull align 8 dereferenceable(80) %3, ptr noundef %12) #3
  %13 = getelementptr inbounds %"class.std::_Deque_base", ptr %3, i32 0, i32 0
  %14 = getelementptr inbounds %"struct.std::_Deque_base<unsigned char, std::allocator<unsigned char>>::_Deque_impl_data", ptr %13, i32 0, i32 2
  %15 = getelementptr inbounds %"class.std::_Deque_base", ptr %3, i32 0, i32 0
  %16 = getelementptr inbounds %"struct.std::_Deque_base<unsigned char, std::allocator<unsigned char>>::_Deque_impl_data", ptr %15, i32 0, i32 2
  %17 = getelementptr inbounds %"struct.std::_Deque_iterator", ptr %16, i32 0, i32 3
  %18 = load ptr, ptr %17, align 8
  %19 = getelementptr inbounds ptr, ptr %18, i64 1
  call void @_ZNSt15_Deque_iteratorIhRhPhE11_M_set_nodeEPS1_(ptr noundef nonnull align 8 dereferenceable(32) %14, ptr noundef %19) #3
  %20 = getelementptr inbounds %"class.std::_Deque_base", ptr %3, i32 0, i32 0
  %21 = getelementptr inbounds %"struct.std::_Deque_base<unsigned char, std::allocator<unsigned char>>::_Deque_impl_data", ptr %20, i32 0, i32 2
  %22 = getelementptr inbounds %"struct.std::_Deque_iterator", ptr %21, i32 0, i32 1
  %23 = load ptr, ptr %22, align 8
  %24 = getelementptr inbounds %"class.std::_Deque_base", ptr %3, i32 0, i32 0
  %25 = getelementptr inbounds %"struct.std::_Deque_base<unsigned char, std::allocator<unsigned char>>::_Deque_impl_data", ptr %24, i32 0, i32 2
  %26 = getelementptr inbounds %"struct.std::_Deque_iterator", ptr %25, i32 0, i32 0
  store ptr %23, ptr %26, align 8
  ret void
}

; Function Attrs: mustprogress nounwind uwtable
define linkonce_odr void @_ZNSt16allocator_traitsISaIhEE7destroyIhEEvRS0_PT_(ptr noundef nonnull align 1 dereferenceable(1) %0, ptr noundef %1) #5 comdat align 2 personality ptr @__gxx_personality_v0 {
  %3 = alloca ptr, align 8
  %4 = alloca ptr, align 8
  store ptr %0, ptr %3, align 8
  store ptr %1, ptr %4, align 8
  %5 = load ptr, ptr %4, align 8
  invoke void @_ZSt10destroy_atIhEvPT_(ptr noundef %5)
          to label %6 unwind label %7

6:                                                ; preds = %2
  ret void

7:                                                ; preds = %2
  %8 = landingpad { ptr, i32 }
          catch ptr null
  %9 = extractvalue { ptr, i32 } %8, 0
  call void @__clang_call_terminate(ptr %9) #17
  unreachable
}

; Function Attrs: mustprogress nounwind uwtable
define linkonce_odr noundef nonnull align 1 dereferenceable(1) ptr @_ZNSt11_Deque_baseIhSaIhEE19_M_get_Tp_allocatorEv(ptr noundef nonnull align 8 dereferenceable(80) %0) #5 comdat align 2 {
  %2 = alloca ptr, align 8
  store ptr %0, ptr %2, align 8
  %3 = load ptr, ptr %2, align 8
  %4 = getelementptr inbounds %"class.std::_Deque_base", ptr %3, i32 0, i32 0
  ret ptr %4
}

; Function Attrs: mustprogress nounwind uwtable
define linkonce_odr noundef nonnull align 1 dereferenceable(1) ptr @_ZNKSt15_Deque_iteratorIhRhPhEdeEv(ptr noundef nonnull align 8 dereferenceable(32) %0) #5 comdat align 2 {
  %2 = alloca ptr, align 8
  store ptr %0, ptr %2, align 8
  %3 = load ptr, ptr %2, align 8
  %4 = getelementptr inbounds %"struct.std::_Deque_iterator", ptr %3, i32 0, i32 0
  %5 = load ptr, ptr %4, align 8
  ret ptr %5
}

; Function Attrs: mustprogress nounwind uwtable
define linkonce_odr void @_ZNSt5dequeIhSaIhEE5beginEv(ptr dead_on_unwind noalias writable sret(%"struct.std::_Deque_iterator") align 8 %0, ptr noundef nonnull align 8 dereferenceable(80) %1) #5 comdat align 2 {
  %3 = alloca ptr, align 8
  %4 = alloca ptr, align 8
  store ptr %0, ptr %3, align 8
  store ptr %1, ptr %4, align 8
  %5 = load ptr, ptr %4, align 8
  %6 = getelementptr inbounds %"class.std::_Deque_base", ptr %5, i32 0, i32 0
  %7 = getelementptr inbounds %"struct.std::_Deque_base<unsigned char, std::allocator<unsigned char>>::_Deque_impl_data", ptr %6, i32 0, i32 2
  call void @_ZNSt15_Deque_iteratorIhRhPhEC2ERKS2_(ptr noundef nonnull align 8 dereferenceable(32) %0, ptr noundef nonnull align 8 dereferenceable(32) %7) #3
  ret void
}

; Function Attrs: mustprogress nounwind uwtable
define linkonce_odr noundef zeroext i1 @_ZSteqRKSt15_Deque_iteratorIhRhPhES4_(ptr noundef nonnull align 8 dereferenceable(32) %0, ptr noundef nonnull align 8 dereferenceable(32) %1) #5 comdat {
  %3 = alloca ptr, align 8
  %4 = alloca ptr, align 8
  store ptr %0, ptr %3, align 8
  store ptr %1, ptr %4, align 8
  %5 = load ptr, ptr %3, align 8
  %6 = getelementptr inbounds %"struct.std::_Deque_iterator", ptr %5, i32 0, i32 0
  %7 = load ptr, ptr %6, align 8
  %8 = load ptr, ptr %4, align 8
  %9 = getelementptr inbounds %"struct.std::_Deque_iterator", ptr %8, i32 0, i32 0
  %10 = load ptr, ptr %9, align 8
  %11 = icmp eq ptr %7, %10
  ret i1 %11
}

; Function Attrs: mustprogress nounwind uwtable
define linkonce_odr void @_ZNSt5dequeIhSaIhEE9pop_frontEv(ptr noundef nonnull align 8 dereferenceable(80) %0) #5 comdat align 2 personality ptr @__gxx_personality_v0 {
  %2 = alloca ptr, align 8
  store ptr %0, ptr %2, align 8
  %3 = load ptr, ptr %2, align 8
  %4 = getelementptr inbounds %"class.std::_Deque_base", ptr %3, i32 0, i32 0
  %5 = getelementptr inbounds %"struct.std::_Deque_base<unsigned char, std::allocator<unsigned char>>::_Deque_impl_data", ptr %4, i32 0, i32 2
  %6 = getelementptr inbounds %"struct.std::_Deque_iterator", ptr %5, i32 0, i32 0
  %7 = load ptr, ptr %6, align 8
  %8 = getelementptr inbounds %"class.std::_Deque_base", ptr %3, i32 0, i32 0
  %9 = getelementptr inbounds %"struct.std::_Deque_base<unsigned char, std::allocator<unsigned char>>::_Deque_impl_data", ptr %8, i32 0, i32 2
  %10 = getelementptr inbounds %"struct.std::_Deque_iterator", ptr %9, i32 0, i32 2
  %11 = load ptr, ptr %10, align 8
  %12 = getelementptr inbounds i8, ptr %11, i64 -1
  %13 = icmp ne ptr %7, %12
  br i1 %13, label %14, label %25

14:                                               ; preds = %1
  %15 = call noundef nonnull align 1 dereferenceable(1) ptr @_ZNSt11_Deque_baseIhSaIhEE19_M_get_Tp_allocatorEv(ptr noundef nonnull align 8 dereferenceable(80) %3) #3
  %16 = getelementptr inbounds %"class.std::_Deque_base", ptr %3, i32 0, i32 0
  %17 = getelementptr inbounds %"struct.std::_Deque_base<unsigned char, std::allocator<unsigned char>>::_Deque_impl_data", ptr %16, i32 0, i32 2
  %18 = getelementptr inbounds %"struct.std::_Deque_iterator", ptr %17, i32 0, i32 0
  %19 = load ptr, ptr %18, align 8
  call void @_ZNSt16allocator_traitsISaIhEE7destroyIhEEvRS0_PT_(ptr noundef nonnull align 1 dereferenceable(1) %15, ptr noundef %19) #3
  %20 = getelementptr inbounds %"class.std::_Deque_base", ptr %3, i32 0, i32 0
  %21 = getelementptr inbounds %"struct.std::_Deque_base<unsigned char, std::allocator<unsigned char>>::_Deque_impl_data", ptr %20, i32 0, i32 2
  %22 = getelementptr inbounds %"struct.std::_Deque_iterator", ptr %21, i32 0, i32 0
  %23 = load ptr, ptr %22, align 8
  %24 = getelementptr inbounds i8, ptr %23, i32 1
  store ptr %24, ptr %22, align 8
  br label %27

25:                                               ; preds = %1
  invoke void @_ZNSt5dequeIhSaIhEE16_M_pop_front_auxEv(ptr noundef nonnull align 8 dereferenceable(80) %3)
          to label %26 unwind label %28

26:                                               ; preds = %25
  br label %27

27:                                               ; preds = %26, %14
  ret void

28:                                               ; preds = %25
  %29 = landingpad { ptr, i32 }
          catch ptr null
  %30 = extractvalue { ptr, i32 } %29, 0
  call void @__clang_call_terminate(ptr %30) #17
  unreachable
}

; Function Attrs: mustprogress nounwind uwtable
define linkonce_odr noundef nonnull align 1 dereferenceable(1) ptr @_ZNSt5dequeIhSaIhEE5frontEv(ptr noundef nonnull align 8 dereferenceable(80) %0) #5 comdat align 2 {
  %2 = alloca ptr, align 8
  %3 = alloca %"struct.std::_Deque_iterator", align 8
  store ptr %0, ptr %2, align 8
  %4 = load ptr, ptr %2, align 8
  call void @_ZNSt5dequeIhSaIhEE5beginEv(ptr dead_on_unwind writable sret(%"struct.std::_Deque_iterator") align 8 %3, ptr noundef nonnull align 8 dereferenceable(80) %4) #3
  %5 = call noundef nonnull align 1 dereferenceable(1) ptr @_ZNKSt15_Deque_iteratorIhRhPhEdeEv(ptr noundef nonnull align 8 dereferenceable(32) %3) #3
  ret ptr %5
}

; Function Attrs: mustprogress nounwind uwtable
define linkonce_odr noundef zeroext i1 @_ZNKSt5dequeIhSaIhEE5emptyEv(ptr noundef nonnull align 8 dereferenceable(80) %0) #5 comdat align 2 {
  %2 = alloca ptr, align 8
  store ptr %0, ptr %2, align 8
  %3 = load ptr, ptr %2, align 8
  %4 = getelementptr inbounds %"class.std::_Deque_base", ptr %3, i32 0, i32 0
  %5 = getelementptr inbounds %"struct.std::_Deque_base<unsigned char, std::allocator<unsigned char>>::_Deque_impl_data", ptr %4, i32 0, i32 3
  %6 = getelementptr inbounds %"class.std::_Deque_base", ptr %3, i32 0, i32 0
  %7 = getelementptr inbounds %"struct.std::_Deque_base<unsigned char, std::allocator<unsigned char>>::_Deque_impl_data", ptr %6, i32 0, i32 2
  %8 = call noundef zeroext i1 @_ZSteqRKSt15_Deque_iteratorIhRhPhES4_(ptr noundef nonnull align 8 dereferenceable(32) %5, ptr noundef nonnull align 8 dereferenceable(32) %7) #3
  ret i1 %8
}

; Function Attrs: mustprogress nounwind uwtable
define linkonce_odr void @_ZNSt5queueIhSt5dequeIhSaIhEEE3popEv(ptr noundef nonnull align 8 dereferenceable(80) %0) #5 comdat align 2 {
  %2 = alloca ptr, align 8
  store ptr %0, ptr %2, align 8
  %3 = load ptr, ptr %2, align 8
  %4 = getelementptr inbounds %"class.std::queue", ptr %3, i32 0, i32 0
  call void @_ZNSt5dequeIhSaIhEE9pop_frontEv(ptr noundef nonnull align 8 dereferenceable(80) %4) #3
  ret void
}

; Function Attrs: mustprogress nounwind uwtable
define linkonce_odr noundef nonnull align 1 dereferenceable(1) ptr @_ZNSt5queueIhSt5dequeIhSaIhEEE5frontEv(ptr noundef nonnull align 8 dereferenceable(80) %0) #5 comdat align 2 {
  %2 = alloca ptr, align 8
  store ptr %0, ptr %2, align 8
  %3 = load ptr, ptr %2, align 8
  %4 = getelementptr inbounds %"class.std::queue", ptr %3, i32 0, i32 0
  %5 = call noundef nonnull align 1 dereferenceable(1) ptr @_ZNSt5dequeIhSaIhEE5frontEv(ptr noundef nonnull align 8 dereferenceable(80) %4) #3
  ret ptr %5
}

; Function Attrs: mustprogress nounwind uwtable
define linkonce_odr noundef zeroext i1 @_ZNKSt5queueIhSt5dequeIhSaIhEEE5emptyEv(ptr noundef nonnull align 8 dereferenceable(80) %0) #5 comdat align 2 {
  %2 = alloca ptr, align 8
  store ptr %0, ptr %2, align 8
  %3 = load ptr, ptr %2, align 8
  %4 = getelementptr inbounds %"class.std::queue", ptr %3, i32 0, i32 0
  %5 = call noundef zeroext i1 @_ZNKSt5dequeIhSaIhEE5emptyEv(ptr noundef nonnull align 8 dereferenceable(80) %4) #3
  ret i1 %5
}

; Function Attrs: mustprogress uwtable
define noundef zeroext i8 @_ZN9ns16550_t7rx_byteEv(ptr noundef nonnull align 8 dereferenceable(128) %0) #4 align 2 {
  %2 = alloca i8, align 1
  %3 = alloca ptr, align 8
  %4 = alloca i8, align 1
  store ptr %0, ptr %3, align 8
  %5 = load ptr, ptr %3, align 8
  %6 = getelementptr inbounds %class.ns16550_t, ptr %5, i32 0, i32 5
  %7 = call noundef zeroext i1 @_ZNKSt5queueIhSt5dequeIhSaIhEEE5emptyEv(ptr noundef nonnull align 8 dereferenceable(80) %6)
  br i1 %7, label %8, label %14

8:                                                ; preds = %1
  %9 = getelementptr inbounds %class.ns16550_t, ptr %5, i32 0, i32 13
  %10 = load i8, ptr %9, align 1
  %11 = zext i8 %10 to i32
  %12 = and i32 %11, -2
  %13 = trunc i32 %12 to i8
  store i8 %13, ptr %9, align 1
  store i8 0, ptr %2, align 1
  br label %41

14:                                               ; preds = %1
  %15 = getelementptr inbounds %class.ns16550_t, ptr %5, i32 0, i32 13
  %16 = load i8, ptr %15, align 1
  %17 = zext i8 %16 to i32
  %18 = and i32 %17, 16
  %19 = icmp ne i32 %18, 0
  br i1 %19, label %20, label %26

20:                                               ; preds = %14
  %21 = getelementptr inbounds %class.ns16550_t, ptr %5, i32 0, i32 13
  %22 = load i8, ptr %21, align 1
  %23 = zext i8 %22 to i32
  %24 = and i32 %23, -17
  %25 = trunc i32 %24 to i8
  store i8 %25, ptr %21, align 1
  store i8 0, ptr %2, align 1
  br label %41

26:                                               ; preds = %14
  %27 = getelementptr inbounds %class.ns16550_t, ptr %5, i32 0, i32 5
  %28 = call noundef nonnull align 1 dereferenceable(1) ptr @_ZNSt5queueIhSt5dequeIhSaIhEEE5frontEv(ptr noundef nonnull align 8 dereferenceable(80) %27)
  %29 = load i8, ptr %28, align 1
  store i8 %29, ptr %4, align 1
  %30 = getelementptr inbounds %class.ns16550_t, ptr %5, i32 0, i32 5
  call void @_ZNSt5queueIhSt5dequeIhSaIhEEE3popEv(ptr noundef nonnull align 8 dereferenceable(80) %30)
  %31 = getelementptr inbounds %class.ns16550_t, ptr %5, i32 0, i32 5
  %32 = call noundef zeroext i1 @_ZNKSt5queueIhSt5dequeIhSaIhEEE5emptyEv(ptr noundef nonnull align 8 dereferenceable(80) %31)
  br i1 %32, label %33, label %39

33:                                               ; preds = %26
  %34 = getelementptr inbounds %class.ns16550_t, ptr %5, i32 0, i32 13
  %35 = load i8, ptr %34, align 1
  %36 = zext i8 %35 to i32
  %37 = and i32 %36, -2
  %38 = trunc i32 %37 to i8
  store i8 %38, ptr %34, align 1
  br label %39

39:                                               ; preds = %33, %26
  %40 = load i8, ptr %4, align 1
  store i8 %40, ptr %2, align 1
  br label %41

41:                                               ; preds = %39, %20, %8
  %42 = load i8, ptr %2, align 1
  ret i8 %42
}