; Function Attrs: mustprogress nounwind uwtable
define noundef zeroext i8 @_ZN9ns16550_t7rx_byteEv(ptr nocapture noundef nonnull align 8 dereferenceable(128) %0) local_unnamed_addr #4 align 2 personality ptr @__gxx_personality_v0 {
  %2 = getelementptr inbounds i8, ptr %0, i64 80
  %3 = getelementptr inbounds i8, ptr %0, i64 48
  %4 = load ptr, ptr %2, align 8
  %5 = load ptr, ptr %3, align 8
  %6 = icmp eq ptr %4, %5
  %7 = getelementptr inbounds i8, ptr %0, i64 119
  %8 = load i8, ptr %7, align 1
  br i1 %6, label %9, label %11

9:                                                ; preds = %1
  %10 = and i8 %8, -2
  br label %.sink.split

11:                                               ; preds = %1
  %12 = and i8 %8, 16
  %.not = icmp eq i8 %12, 0
  br i1 %.not, label %15, label %13

13:                                               ; preds = %11
  %14 = and i8 %8, -17
  br label %.sink.split

15:                                               ; preds = %11
  %16 = load i8, ptr %5, align 1
  %17 = getelementptr inbounds i8, ptr %0, i64 64
  %18 = load ptr, ptr %17, align 8
  %19 = getelementptr inbounds i8, ptr %18, i64 -1
  %.not.i.i = icmp eq ptr %5, %19
  br i1 %.not.i.i, label %22, label %20

20:                                               ; preds = %15
  %21 = getelementptr inbounds i8, ptr %5, i64 1
  br label %_ZNSt5queueIhSt5dequeIhSaIhEEE3popEv.exit

22:                                               ; preds = %15
  %23 = getelementptr inbounds i8, ptr %0, i64 56
  %24 = load ptr, ptr %23, align 8
  tail call void @_ZdlPv(ptr noundef %24) #18
  %25 = getelementptr inbounds i8, ptr %0, i64 72
  %26 = load ptr, ptr %25, align 8
  %27 = getelementptr inbounds i8, ptr %26, i64 8
  store ptr %27, ptr %25, align 8
  %28 = load ptr, ptr %27, align 8
  store ptr %28, ptr %23, align 8
  %29 = getelementptr inbounds i8, ptr %28, i64 512
  store ptr %29, ptr %17, align 8
  %.pre = load ptr, ptr %2, align 8
  br label %_ZNSt5queueIhSt5dequeIhSaIhEEE3popEv.exit

_ZNSt5queueIhSt5dequeIhSaIhEEE3popEv.exit:        ; preds = %20, %22
  %30 = phi ptr [ %4, %20 ], [ %.pre, %22 ]
  %storemerge.i.i = phi ptr [ %21, %20 ], [ %28, %22 ]
  store ptr %storemerge.i.i, ptr %3, align 8
  %31 = icmp eq ptr %30, %storemerge.i.i
  br i1 %31, label %32, label %35

32:                                               ; preds = %_ZNSt5queueIhSt5dequeIhSaIhEEE3popEv.exit
  %33 = load i8, ptr %7, align 1
  %34 = and i8 %33, -2
  br label %.sink.split

.sink.split:                                      ; preds = %9, %13, %32
  %.sink = phi i8 [ %34, %32 ], [ %14, %13 ], [ %10, %9 ]
  %.0.ph = phi i8 [ %16, %32 ], [ 0, %13 ], [ 0, %9 ]
  store i8 %.sink, ptr %7, align 1
  br label %35

35:                                               ; preds = %.sink.split, %_ZNSt5queueIhSt5dequeIhSaIhEEE3popEv.exit
  %.0 = phi i8 [ %16, %_ZNSt5queueIhSt5dequeIhSaIhEEE3popEv.exit ], [ %.0.ph, %.sink.split ]
  ret i8 %.0
}